; ModuleID = '22/506.c'
source_filename = "22/506.c"
target datalayout = "e-m:e-p270:32:32-p271:32:32-p272:64:64-i64:64-f80:128-n8:16:32:64-S128"
target triple = "x86_64-pc-linux-gnu"

@.str = private unnamed_addr constant [5 x i8] c"%d%c\00", align 1
@.str.1 = private unnamed_addr constant [3 x i8] c"No\00", align 1
@.str.2 = private unnamed_addr constant [3 x i8] c"%d\00", align 1

; Function Attrs: noinline nounwind uwtable
define dso_local i32 @main() #0 {
  %1 = alloca i32, align 4
  %2 = alloca i32, align 4
  %3 = alloca [300 x i32], align 16
  %4 = alloca i32, align 4
  %5 = alloca [300 x i8], align 16
  %6 = alloca i32, align 4
  %7 = alloca i32, align 4
  %8 = alloca i32, align 4
  %9 = alloca i32, align 4
  store i32 0, i32* %1, align 4
  store i32 0, i32* %4, align 4
  store i32 0, i32* %2, align 4
  br label %10

10:                                               ; preds = %28, %0
  %11 = load i32, i32* %2, align 4
  %12 = sext i32 %11 to i64
  %13 = getelementptr inbounds [300 x i32], [300 x i32]* %3, i64 0, i64 %12
  %14 = load i32, i32* %2, align 4
  %15 = sext i32 %14 to i64
  %16 = getelementptr inbounds [300 x i8], [300 x i8]* %5, i64 0, i64 %15
  %17 = call i32 (i8*, ...) @__isoc99_scanf(i8* getelementptr inbounds ([5 x i8], [5 x i8]* @.str, i64 0, i64 0), i32* %13, i8* %16)
  %18 = load i32, i32* %4, align 4
  %19 = add nsw i32 %18, 1
  store i32 %19, i32* %4, align 4
  %20 = load i32, i32* %2, align 4
  %21 = sext i32 %20 to i64
  %22 = getelementptr inbounds [300 x i8], [300 x i8]* %5, i64 0, i64 %21
  %23 = load i8, i8* %22, align 1
  %24 = sext i8 %23 to i32
  %25 = icmp eq i32 %24, 10
  br i1 %25, label %26, label %27

26:                                               ; preds = %10
  br label %31

27:                                               ; preds = %10
  br label %28

28:                                               ; preds = %27
  %29 = load i32, i32* %2, align 4
  %30 = add nsw i32 %29, 1
  store i32 %30, i32* %2, align 4
  br label %10

31:                                               ; preds = %26
  store i32 0, i32* %6, align 4
  %32 = load i32, i32* %4, align 4
  %33 = icmp eq i32 %32, 1
  br i1 %33, label %34, label %36

34:                                               ; preds = %31
  %35 = call i32 (i8*, ...) @printf(i8* getelementptr inbounds ([3 x i8], [3 x i8]* @.str.1, i64 0, i64 0))
  br label %149

36:                                               ; preds = %31
  %37 = load i32, i32* %4, align 4
  %38 = icmp ne i32 %37, 1
  br i1 %38, label %39, label %148

39:                                               ; preds = %36
  store i32 0, i32* %2, align 4
  br label %40

40:                                               ; preds = %60, %39
  %41 = load i32, i32* %2, align 4
  %42 = add nsw i32 %41, 1
  %43 = load i32, i32* %4, align 4
  %44 = icmp slt i32 %42, %43
  br i1 %44, label %45, label %63

45:                                               ; preds = %40
  %46 = load i32, i32* %2, align 4
  %47 = add nsw i32 %46, 1
  %48 = sext i32 %47 to i64
  %49 = getelementptr inbounds [300 x i32], [300 x i32]* %3, i64 0, i64 %48
  %50 = load i32, i32* %49, align 4
  %51 = load i32, i32* %2, align 4
  %52 = sext i32 %51 to i64
  %53 = getelementptr inbounds [300 x i32], [300 x i32]* %3, i64 0, i64 %52
  %54 = load i32, i32* %53, align 4
  %55 = icmp ne i32 %50, %54
  br i1 %55, label %56, label %59

56:                                               ; preds = %45
  %57 = load i32, i32* %6, align 4
  %58 = add nsw i32 %57, 1
  store i32 %58, i32* %6, align 4
  br label %59

59:                                               ; preds = %56, %45
  br label %60

60:                                               ; preds = %59
  %61 = load i32, i32* %2, align 4
  %62 = add nsw i32 %61, 1
  store i32 %62, i32* %2, align 4
  br label %40

63:                                               ; preds = %40
  %64 = load i32, i32* %6, align 4
  %65 = icmp eq i32 %64, 0
  br i1 %65, label %66, label %68

66:                                               ; preds = %63
  %67 = call i32 (i8*, ...) @printf(i8* getelementptr inbounds ([3 x i8], [3 x i8]* @.str.1, i64 0, i64 0))
  br label %147

68:                                               ; preds = %63
  store i32 0, i32* %7, align 4
  %69 = load i32, i32* %4, align 4
  %70 = sext i32 %69 to i64
  %71 = getelementptr inbounds [300 x i32], [300 x i32]* %3, i64 0, i64 %70
  store i32 10000000, i32* %71, align 4
  store i32 0, i32* %8, align 4
  br label %72

72:                                               ; preds = %115, %68
  %73 = load i32, i32* %8, align 4
  %74 = load i32, i32* %4, align 4
  %75 = icmp slt i32 %73, %74
  br i1 %75, label %76, label %118

76:                                               ; preds = %72
  store i32 0, i32* %2, align 4
  br label %77

77:                                               ; preds = %111, %76
  %78 = load i32, i32* %2, align 4
  %79 = load i32, i32* %4, align 4
  %80 = icmp slt i32 %78, %79
  br i1 %80, label %81, label %114

81:                                               ; preds = %77
  %82 = load i32, i32* %2, align 4
  %83 = sext i32 %82 to i64
  %84 = getelementptr inbounds [300 x i32], [300 x i32]* %3, i64 0, i64 %83
  %85 = load i32, i32* %84, align 4
  %86 = load i32, i32* %2, align 4
  %87 = add nsw i32 %86, 1
  %88 = sext i32 %87 to i64
  %89 = getelementptr inbounds [300 x i32], [300 x i32]* %3, i64 0, i64 %88
  %90 = load i32, i32* %89, align 4
  %91 = icmp sgt i32 %85, %90
  br i1 %91, label %92, label %110

92:                                               ; preds = %81
  %93 = load i32, i32* %2, align 4
  %94 = add nsw i32 %93, 1
  %95 = sext i32 %94 to i64
  %96 = getelementptr inbounds [300 x i32], [300 x i32]* %3, i64 0, i64 %95
  %97 = load i32, i32* %96, align 4
  store i32 %97, i32* %9, align 4
  %98 = load i32, i32* %2, align 4
  %99 = sext i32 %98 to i64
  %100 = getelementptr inbounds [300 x i32], [300 x i32]* %3, i64 0, i64 %99
  %101 = load i32, i32* %100, align 4
  %102 = load i32, i32* %2, align 4
  %103 = add nsw i32 %102, 1
  %104 = sext i32 %103 to i64
  %105 = getelementptr inbounds [300 x i32], [300 x i32]* %3, i64 0, i64 %104
  store i32 %101, i32* %105, align 4
  %106 = load i32, i32* %9, align 4
  %107 = load i32, i32* %2, align 4
  %108 = sext i32 %107 to i64
  %109 = getelementptr inbounds [300 x i32], [300 x i32]* %3, i64 0, i64 %108
  store i32 %106, i32* %109, align 4
  br label %110

110:                                              ; preds = %92, %81
  br label %111

111:                                              ; preds = %110
  %112 = load i32, i32* %2, align 4
  %113 = add nsw i32 %112, 1
  store i32 %113, i32* %2, align 4
  br label %77

114:                                              ; preds = %77
  br label %115

115:                                              ; preds = %114
  %116 = load i32, i32* %8, align 4
  %117 = add nsw i32 %116, 1
  store i32 %117, i32* %8, align 4
  br label %72

118:                                              ; preds = %72
  %119 = load i32, i32* %4, align 4
  %120 = sub nsw i32 %119, 1
  store i32 %120, i32* %8, align 4
  br label %121

121:                                              ; preds = %143, %118
  %122 = load i32, i32* %8, align 4
  %123 = icmp sgt i32 %122, 0
  br i1 %123, label %124, label %146

124:                                              ; preds = %121
  %125 = load i32, i32* %8, align 4
  %126 = sext i32 %125 to i64
  %127 = getelementptr inbounds [300 x i32], [300 x i32]* %3, i64 0, i64 %126
  %128 = load i32, i32* %127, align 4
  %129 = load i32, i32* %8, align 4
  %130 = sub nsw i32 %129, 1
  %131 = sext i32 %130 to i64
  %132 = getelementptr inbounds [300 x i32], [300 x i32]* %3, i64 0, i64 %131
  %133 = load i32, i32* %132, align 4
  %134 = icmp eq i32 %128, %133
  br i1 %134, label %135, label %136

135:                                              ; preds = %124
  br label %143

136:                                              ; preds = %124
  %137 = load i32, i32* %8, align 4
  %138 = sub nsw i32 %137, 1
  %139 = sext i32 %138 to i64
  %140 = getelementptr inbounds [300 x i32], [300 x i32]* %3, i64 0, i64 %139
  %141 = load i32, i32* %140, align 4
  %142 = call i32 (i8*, ...) @printf(i8* getelementptr inbounds ([3 x i8], [3 x i8]* @.str.2, i64 0, i64 0), i32 %141)
  br label %146

143:                                              ; preds = %135
  %144 = load i32, i32* %8, align 4
  %145 = add nsw i32 %144, -1
  store i32 %145, i32* %8, align 4
  br label %121

146:                                              ; preds = %136, %121
  br label %147

147:                                              ; preds = %146, %66
  br label %148

148:                                              ; preds = %147, %36
  br label %149

149:                                              ; preds = %148, %34
  ret i32 0
}

declare dso_local i32 @__isoc99_scanf(i8*, ...) #1

declare dso_local i32 @printf(i8*, ...) #1


!llvm.module.flags = !{!0}
!llvm.ident = !{!1}

!0 = !{i32 1, !"wchar_size", i32 4}
!1 = !{!"clang version 10.0.0-4ubuntu1 "}
